target datalayout = "e-m:e-p270:32:32-p271:32:32-p272:64:64-i64:64-i128:128-f80:128-n8:16:32:64-S128"
target triple = "x86_64-pc-linux-gnu"

%struct.color_t = type { i16, i16, i16 }
%struct._color_filter = type { ptr, ptr, %struct.color_t, %struct.color_t, i8, ptr }

; Function Attrs: null_pointer_is_valid sspstrong uwtable
define ptr @color_filter_new(ptr noundef %0, ptr noundef %1, ptr noundef %2, ptr noundef %3, i1 noundef zeroext %4) #0 {
  %6 = alloca ptr, align 8
  %7 = alloca ptr, align 8
  %8 = alloca ptr, align 8
  %9 = alloca ptr, align 8
  %10 = alloca i8, align 1
  %11 = alloca ptr, align 8
  %12 = alloca i64, align 8
  %13 = alloca i64, align 8
  %14 = alloca ptr, align 8
  %15 = alloca ptr, align 8
  store ptr %0, ptr %6, align 8
  store ptr %1, ptr %7, align 8
  store ptr %2, ptr %8, align 8
  store ptr %3, ptr %9, align 8
  %16 = zext i1 %4 to i8
  store i8 %16, ptr %10, align 1
  call void @llvm.lifetime.start.p0(i64 8, ptr %11) #13
  call void @llvm.lifetime.start.p0(i64 8, ptr %12) #13
  store i64 1, ptr %12, align 8
  call void @llvm.lifetime.start.p0(i64 8, ptr %13) #13
  store i64 40, ptr %13, align 8
  call void @llvm.lifetime.start.p0(i64 8, ptr %14) #13
  %17 = load i64, ptr %13, align 8
  %18 = icmp eq i64 %17, 1
  br i1 %18, label %19, label %22

19:                                               ; preds = %5
  %20 = load i64, ptr %12, align 8
  %21 = call noalias ptr @g_malloc0(i64 noundef %20) #14
  store ptr %21, ptr %14, align 8
  br label %43

22:                                               ; preds = %5
  %23 = load i64, ptr %12, align 8
  %24 = call i1 @llvm.is.constant.i64(i64 %23)
  br i1 %24, label %25, label %38

25:                                               ; preds = %22
  %26 = load i64, ptr %13, align 8
  %27 = icmp eq i64 %26, 0
  br i1 %27, label %33, label %28

28:                                               ; preds = %25
  %29 = load i64, ptr %12, align 8
  %30 = load i64, ptr %13, align 8
  %31 = udiv i64 -1, %30
  %32 = icmp ule i64 %29, %31
  br i1 %32, label %33, label %38

33:                                               ; preds = %28, %25
  %34 = load i64, ptr %12, align 8
  %35 = load i64, ptr %13, align 8
  %36 = mul i64 %34, %35
  %37 = call noalias ptr @g_malloc0(i64 noundef %36) #14
  store ptr %37, ptr %14, align 8
  br label %42

38:                                               ; preds = %28, %22
  %39 = load i64, ptr %12, align 8
  %40 = load i64, ptr %13, align 8
  %41 = call noalias ptr @g_malloc0_n(i64 noundef %39, i64 noundef %40) #15
  store ptr %41, ptr %14, align 8
  br label %42

42:                                               ; preds = %38, %33
  br label %43

43:                                               ; preds = %42, %19
  %44 = load ptr, ptr %14, align 8
  store ptr %44, ptr %15, align 8
  call void @llvm.lifetime.end.p0(i64 8, ptr %14) #13
  call void @llvm.lifetime.end.p0(i64 8, ptr %13) #13
  call void @llvm.lifetime.end.p0(i64 8, ptr %12) #13
  %45 = load ptr, ptr %15, align 8
  store ptr %45, ptr %11, align 8
  %46 = load ptr, ptr %6, align 8
  %47 = call noalias ptr @g_strdup(ptr noundef %46)
  %48 = load ptr, ptr %11, align 8
  %49 = getelementptr inbounds nuw %struct._color_filter, ptr %48, i32 0, i32 0
  store ptr %47, ptr %49, align 8
  %50 = load ptr, ptr %7, align 8
  %51 = call noalias ptr @g_strdup(ptr noundef %50)
  %52 = load ptr, ptr %11, align 8
  %53 = getelementptr inbounds nuw %struct._color_filter, ptr %52, i32 0, i32 1
  store ptr %51, ptr %53, align 8
  %54 = load ptr, ptr %11, align 8
  %55 = getelementptr inbounds nuw %struct._color_filter, ptr %54, i32 0, i32 2
  %56 = load ptr, ptr %8, align 8
  call void @llvm.memcpy.p0.p0.i64(ptr align 8 %55, ptr align 2 %56, i64 6, i1 false)
  %57 = load ptr, ptr %11, align 8
  %58 = getelementptr inbounds nuw %struct._color_filter, ptr %57, i32 0, i32 3
  %59 = load ptr, ptr %9, align 8
  call void @llvm.memcpy.p0.p0.i64(ptr align 2 %58, ptr align 2 %59, i64 6, i1 false)
  %60 = load i8, ptr %10, align 1, !range !6, !noundef !7
  %61 = trunc i8 %60 to i1
  %62 = load ptr, ptr %11, align 8
  %63 = getelementptr inbounds nuw %struct._color_filter, ptr %62, i32 0, i32 4
  %64 = zext i1 %61 to i8
  store i8 %64, ptr %63, align 4
  %65 = load ptr, ptr %11, align 8
  call void @llvm.lifetime.end.p0(i64 8, ptr %11) #13
  ret ptr %65
}