; Function Attrs: null_pointer_is_valid sspstrong uwtable
define noalias noundef ptr @color_filter_new(ptr noundef %0, ptr noundef %1, ptr noundef readonly captures(none) %2, ptr noundef readonly captures(none) %3, i1 noundef zeroext %4) local_unnamed_addr #0 {
  %6 = tail call noalias dereferenceable_or_null(40) ptr @g_malloc0(i64 noundef 40) #12
  %7 = zext i1 %4 to i8
  %8 = tail call noalias ptr @g_strdup(ptr noundef %0)
  store ptr %8, ptr %6, align 8
  %9 = tail call noalias ptr @g_strdup(ptr noundef %1)
  %10 = getelementptr inbounds nuw i8, ptr %6, i64 8
  store ptr %9, ptr %10, align 8
  %11 = getelementptr inbounds nuw i8, ptr %6, i64 16
  tail call void @llvm.memcpy.p0.p0.i64(ptr noundef nonnull align 8 dereferenceable(6) %11, ptr noundef align 2 dereferenceable(6) %2, i64 6, i1 false)
  %12 = getelementptr inbounds nuw i8, ptr %6, i64 22
  tail call void @llvm.memcpy.p0.p0.i64(ptr noundef nonnull align 2 dereferenceable(6) %12, ptr noundef align 2 dereferenceable(6) %3, i64 6, i1 false)
  %13 = getelementptr inbounds nuw i8, ptr %6, i64 28
  store i8 %7, ptr %13, align 4
  ret ptr %6
}